; Function Attrs: mustprogress uwtable
define void @_ZN8tinyxml210XMLPrinter15PushDeclarationEPKc(ptr noundef nonnull align 8 dereferenceable(312) %0, ptr noundef %1) local_unnamed_addr #4 align 2 {
  %3 = getelementptr inbounds nuw i8, ptr %0, i64 137
  %4 = load i8, ptr %3, align 1, !tbaa !167, !range !94, !noundef !95
  %5 = trunc nuw i8 %4 to i1
  %6 = getelementptr inbounds nuw i8, ptr %0, i64 8
  %7 = load i8, ptr %6, align 8, !tbaa !157, !range !94, !noundef !95
  %8 = trunc nuw i8 %7 to i1
  br i1 %8, label %9, label %_ZN8tinyxml210XMLPrinter23SealElementIfJustOpenedEv.exit.i

9:                                                ; preds = %2
  store i8 0, ptr %6, align 8, !tbaa !157
  %10 = load ptr, ptr %0, align 8, !tbaa !63
  %11 = getelementptr inbounds nuw i8, ptr %10, i64 120
  %12 = load ptr, ptr %11, align 8
  tail call void %12(ptr noundef nonnull align 8 dereferenceable(312) %0, i8 noundef signext 62)
  br label %_ZN8tinyxml210XMLPrinter23SealElementIfJustOpenedEv.exit.i

_ZN8tinyxml210XMLPrinter23SealElementIfJustOpenedEv.exit.i: ; preds = %9, %2
  br i1 %5, label %_ZN8tinyxml210XMLPrinter17PrepareForNewNodeEb.exit, label %13

13:                                               ; preds = %_ZN8tinyxml210XMLPrinter23SealElementIfJustOpenedEv.exit.i
  %14 = getelementptr inbounds nuw i8, ptr %0, i64 112
  %15 = load i8, ptr %14, align 8, !tbaa !162, !range !94, !noundef !95
  %16 = trunc nuw i8 %15 to i1
  br i1 %16, label %.sink.split.i, label %17

17:                                               ; preds = %13
  %18 = getelementptr inbounds nuw i8, ptr %0, i64 132
  %19 = load i32, ptr %18, align 4, !tbaa !165
  %20 = icmp slt i32 %19, 0
  br i1 %20, label %21, label %30

21:                                               ; preds = %17
  %22 = load ptr, ptr %0, align 8, !tbaa !63
  %23 = getelementptr inbounds nuw i8, ptr %22, i64 120
  %24 = load ptr, ptr %23, align 8
  tail call void %24(ptr noundef nonnull align 8 dereferenceable(312) %0, i8 noundef signext 10)
  br label %.sink.split.i

.sink.split.i:                                    ; preds = %21, %13
  %25 = getelementptr inbounds nuw i8, ptr %0, i64 128
  %26 = load i32, ptr %25, align 8, !tbaa !164
  %27 = load ptr, ptr %0, align 8, !tbaa !63
  %28 = getelementptr inbounds nuw i8, ptr %27, i64 96
  %29 = load ptr, ptr %28, align 8
  tail call void %29(ptr noundef nonnull align 8 dereferenceable(312) %0, i32 noundef %26)
  br label %30

30:                                               ; preds = %.sink.split.i, %17
  store i8 0, ptr %14, align 8, !tbaa !162
  br label %_ZN8tinyxml210XMLPrinter17PrepareForNewNodeEb.exit

_ZN8tinyxml210XMLPrinter17PrepareForNewNodeEb.exit: ; preds = %_ZN8tinyxml210XMLPrinter23SealElementIfJustOpenedEv.exit.i, %30
  %31 = load ptr, ptr %0, align 8, !tbaa !63
  %32 = getelementptr inbounds nuw i8, ptr %31, i64 112
  %33 = load ptr, ptr %32, align 8
  tail call void %33(ptr noundef nonnull align 8 dereferenceable(312) %0, ptr noundef nonnull @.str.17, i64 noundef 2)
  %34 = tail call i64 @strlen(ptr noundef nonnull dereferenceable(1) %1) #33
  %35 = load ptr, ptr %0, align 8, !tbaa !63
  %36 = getelementptr inbounds nuw i8, ptr %35, i64 112
  %37 = load ptr, ptr %36, align 8
  tail call void %37(ptr noundef nonnull align 8 dereferenceable(312) %0, ptr noundef nonnull %1, i64 noundef %34)
  %38 = load ptr, ptr %0, align 8, !tbaa !63
  %39 = getelementptr inbounds nuw i8, ptr %38, i64 112
  %40 = load ptr, ptr %39, align 8
  tail call void %40(ptr noundef nonnull align 8 dereferenceable(312) %0, ptr noundef nonnull @.str.26, i64 noundef 2)
  ret void
}